target datalayout = "e-m:e-p270:32:32-p271:32:32-p272:64:64-i64:64-i128:128-f80:128-n8:16:32:64-S128"
target triple = "x86_64-pc-linux-gnu"

%"struct.cv::MatSize" = type { ptr }
%"struct.cv::MatStep" = type { ptr, [2 x i64] }
%"class.cv::utils::trace::details::Region" = type <{ ptr, i32, [4 x i8] }>
%"class.cv::Mat" = type { i32, i32, i32, i32, ptr, ptr, ptr, ptr, ptr, ptr, %"struct.cv::MatSize", %"struct.cv::MatStep" }

; Function Attrs: mustprogress uwtable
define void @_ZNK2cv4UMat6copyToERKNS_12_OutputArrayERKNS_11_InputArrayE(ptr noundef nonnull align 8 dereferenceable(80) %0, ptr noundef nonnull align 8 dereferenceable(24) %1, ptr noundef nonnull align 8 dereferenceable(24) %2) #3 align 2 personality ptr @__gxx_personality_v0 {
  %4 = alloca ptr, align 8
  %5 = alloca ptr, align 8
  %6 = alloca ptr, align 8
  %7 = alloca %"class.cv::utils::trace::details::Region", align 8
  %8 = alloca ptr, align 8
  %9 = alloca i32, align 4
  %10 = alloca i32, align 4
  %11 = alloca %"class.cv::Mat", align 8
  store ptr %0, ptr %4, align 8, !tbaa !65
  store ptr %1, ptr %5, align 8, !tbaa !101
  store ptr %2, ptr %6, align 8, !tbaa !174
  %12 = load ptr, ptr %4, align 8
  call void @llvm.lifetime.start.p0(i64 16, ptr %7) #16
  call void @_ZN2cv5utils5trace7details6RegionC1ERKNS3_21LocationStaticStorageE(ptr noundef nonnull align 8 dereferenceable(12) %7, ptr noundef nonnull align 8 dereferenceable(32) @_ZZNK2cv4UMat6copyToERKNS_12_OutputArrayERKNS_11_InputArrayEE26__cv_trace_location_fn1189)
  %13 = load ptr, ptr %6, align 8, !tbaa !174
  %14 = invoke noundef zeroext i1 @_ZNK2cv11_InputArray5emptyEv(ptr noundef nonnull align 8 dereferenceable(24) %13)
          to label %15 unwind label %19

15:                                               ; preds = %3
  br i1 %14, label %16, label %23

16:                                               ; preds = %15
  %17 = load ptr, ptr %5, align 8, !tbaa !101
  invoke void @_ZNK2cv4UMat6copyToERKNS_12_OutputArrayE(ptr noundef nonnull align 8 dereferenceable(80) %12, ptr noundef nonnull align 8 dereferenceable(24) %17)
          to label %18 unwind label %19

18:                                               ; preds = %16
  store i32 1, ptr %10, align 4
  br label %28

19:                                               ; preds = %16, %3
  %20 = landingpad { ptr, i32 }
          cleanup
  %21 = extractvalue { ptr, i32 } %20, 0
  store ptr %21, ptr %8, align 8
  %22 = extractvalue { ptr, i32 } %20, 1
  store i32 %22, ptr %9, align 4
  br label %40

23:                                               ; preds = %15
  call void @llvm.lifetime.start.p0(i64 96, ptr %11) #16
  invoke void @_ZNK2cv4UMat6getMatENS_10AccessFlagE(ptr dead_on_unwind writable sret(%"class.cv::Mat") align 8 %11, ptr noundef nonnull align 8 dereferenceable(80) %12, i32 noundef 16777216)
          to label %24 unwind label %31

24:                                               ; preds = %23
  %25 = load ptr, ptr %5, align 8, !tbaa !101
  %26 = load ptr, ptr %6, align 8, !tbaa !174
  invoke void @_ZNK2cv3Mat6copyToERKNS_12_OutputArrayERKNS_11_InputArrayE(ptr noundef nonnull align 8 dereferenceable(96) %11, ptr noundef nonnull align 8 dereferenceable(24) %25, ptr noundef nonnull align 8 dereferenceable(24) %26)
          to label %27 unwind label %35

27:                                               ; preds = %24
  call void @_ZN2cv3MatD1Ev(ptr noundef nonnull align 8 dereferenceable(96) %11) #16
  call void @llvm.lifetime.end.p0(i64 96, ptr %11) #16
  store i32 0, ptr %10, align 4
  br label %28

28:                                               ; preds = %27, %18
  call void @_ZN2cv5utils5trace7details6RegionD2Ev(ptr noundef nonnull align 8 dereferenceable(12) %7) #16
  call void @llvm.lifetime.end.p0(i64 16, ptr %7) #16
  %29 = load i32, ptr %10, align 4
  switch i32 %29, label %46 [
    i32 0, label %30
    i32 1, label %30
  ]

30:                                               ; preds = %28, %28
  ret void

31:                                               ; preds = %23
  %32 = landingpad { ptr, i32 }
          cleanup
  %33 = extractvalue { ptr, i32 } %32, 0
  store ptr %33, ptr %8, align 8
  %34 = extractvalue { ptr, i32 } %32, 1
  store i32 %34, ptr %9, align 4
  br label %39

35:                                               ; preds = %24
  %36 = landingpad { ptr, i32 }
          cleanup
  %37 = extractvalue { ptr, i32 } %36, 0
  store ptr %37, ptr %8, align 8
  %38 = extractvalue { ptr, i32 } %36, 1
  store i32 %38, ptr %9, align 4
  call void @_ZN2cv3MatD1Ev(ptr noundef nonnull align 8 dereferenceable(96) %11) #16
  br label %39

39:                                               ; preds = %35, %31
  call void @llvm.lifetime.end.p0(i64 96, ptr %11) #16
  br label %40

40:                                               ; preds = %39, %19
  call void @_ZN2cv5utils5trace7details6RegionD2Ev(ptr noundef nonnull align 8 dereferenceable(12) %7) #16
  call void @llvm.lifetime.end.p0(i64 16, ptr %7) #16
  br label %41

41:                                               ; preds = %40
  %42 = load ptr, ptr %8, align 8
  %43 = load i32, ptr %9, align 4
  %44 = insertvalue { ptr, i32 } poison, ptr %42, 0
  %45 = insertvalue { ptr, i32 } %44, i32 %43, 1
  resume { ptr, i32 } %45

46:                                               ; preds = %28
  unreachable
}