; Function Attrs: mustprogress uwtable
define void @_ZNK2cv4UMat6copyToERKNS_12_OutputArrayERKNS_11_InputArrayE(ptr noundef nonnull align 8 dereferenceable(80) %0, ptr noundef nonnull align 8 dereferenceable(24) %1, ptr noundef nonnull align 8 dereferenceable(24) %2) local_unnamed_addr #4 align 2 personality ptr @__gxx_personality_v0 {
  %4 = alloca %"class.cv::utils::trace::details::Region", align 8
  %5 = alloca %"class.cv::Mat", align 8
  call void @llvm.lifetime.start.p0(i64 16, ptr nonnull %4) #25
  call void @_ZN2cv5utils5trace7details6RegionC1ERKNS3_21LocationStaticStorageE(ptr noundef nonnull align 8 dereferenceable(12) %4, ptr noundef nonnull align 8 dereferenceable(32) @_ZZNK2cv4UMat6copyToERKNS_12_OutputArrayERKNS_11_InputArrayEE26__cv_trace_location_fn1189)
  %6 = invoke noundef zeroext i1 @_ZNK2cv11_InputArray5emptyEv(ptr noundef nonnull align 8 dereferenceable(24) %2)
          to label %7 unwind label %9

7:                                                ; preds = %3
  br i1 %6, label %8, label %11

8:                                                ; preds = %7
  invoke void @_ZNK2cv4UMat6copyToERKNS_12_OutputArrayE(ptr noundef nonnull align 8 dereferenceable(80) %0, ptr noundef nonnull align 8 dereferenceable(24) %1)
          to label %14 unwind label %9

9:                                                ; preds = %8, %3
  %10 = landingpad { ptr, i32 }
          cleanup
  br label %26

11:                                               ; preds = %7
  call void @llvm.lifetime.start.p0(i64 96, ptr nonnull %5) #25
  invoke void @_ZNK2cv4UMat6getMatENS_10AccessFlagE(ptr dead_on_unwind nonnull writable sret(%"class.cv::Mat") align 8 %5, ptr noundef nonnull align 8 dereferenceable(80) %0, i32 noundef 16777216)
          to label %12 unwind label %21

12:                                               ; preds = %11
  invoke void @_ZNK2cv3Mat6copyToERKNS_12_OutputArrayERKNS_11_InputArrayE(ptr noundef nonnull align 8 dereferenceable(96) %5, ptr noundef nonnull align 8 dereferenceable(24) %1, ptr noundef nonnull align 8 dereferenceable(24) %2)
          to label %13 unwind label %23

13:                                               ; preds = %12
  call void @_ZN2cv3MatD1Ev(ptr noundef nonnull align 8 dereferenceable(96) %5) #25
  call void @llvm.lifetime.end.p0(i64 96, ptr nonnull %5) #25
  br label %14

14:                                               ; preds = %8, %13
  %15 = getelementptr inbounds nuw i8, ptr %4, i64 8
  %16 = load i32, ptr %15, align 8, !tbaa !79
  %.not.i = icmp eq i32 %16, 0
  br i1 %.not.i, label %_ZN2cv5utils5trace7details6RegionD2Ev.exit, label %17

17:                                               ; preds = %14
  invoke void @_ZN2cv5utils5trace7details6Region7destroyEv(ptr noundef nonnull align 8 dereferenceable(12) %4)
          to label %_ZN2cv5utils5trace7details6RegionD2Ev.exit unwind label %18

18:                                               ; preds = %17
  %19 = landingpad { ptr, i32 }
          catch ptr null
  %20 = extractvalue { ptr, i32 } %19, 0
  call void @__clang_call_terminate(ptr %20) #27
  unreachable

_ZN2cv5utils5trace7details6RegionD2Ev.exit:       ; preds = %14, %17
  call void @llvm.lifetime.end.p0(i64 16, ptr nonnull %4) #25
  ret void

21:                                               ; preds = %11
  %22 = landingpad { ptr, i32 }
          cleanup
  br label %25

23:                                               ; preds = %12
  %24 = landingpad { ptr, i32 }
          cleanup
  call void @_ZN2cv3MatD1Ev(ptr noundef nonnull align 8 dereferenceable(96) %5) #25
  br label %25

25:                                               ; preds = %23, %21
  %.pn = phi { ptr, i32 } [ %24, %23 ], [ %22, %21 ]
  call void @llvm.lifetime.end.p0(i64 96, ptr nonnull %5) #25
  br label %26

26:                                               ; preds = %25, %9
  %.pn9 = phi { ptr, i32 } [ %10, %9 ], [ %.pn, %25 ]
  call void @_ZN2cv5utils5trace7details6RegionD2Ev(ptr noundef nonnull align 8 dereferenceable(12) %4) #25
  call void @llvm.lifetime.end.p0(i64 16, ptr nonnull %4) #25
  resume { ptr, i32 } %.pn9
}